target datalayout = "e-m:e-p270:32:32-p271:32:32-p272:64:64-i64:64-i128:128-f80:128-n8:16:32:64-S128"
target triple = "x86_64-pc-linux-gnu"

%struct.Sfm_Dec_t_ = type { ptr, ptr, ptr, ptr, ptr, %struct.Vec_Int_t_, %struct.Vec_Wrd_t_, %struct.Vec_Wec_t_, %struct.Vec_Ptr_t_, i32, i32, i32, i32, [4 x i32], [4 x i32], i32, i32, i32, i32, i32, i32, i32, i32, i32, ptr, i64, %struct.Vec_Int_t_, %struct.Vec_Int_t_, %struct.Vec_Wec_t_, %struct.Vec_Int_t_, %struct.Vec_Int_t_, %struct.Vec_Int_t_, %struct.Vec_Int_t_, %struct.Vec_Wrd_t_, %struct.Vec_Wrd_t_, %struct.Vec_Ptr_t_, %struct.Vec_Ptr_t_, ptr, %struct.Vec_Wec_t_, [2 x %struct.Vec_Int_t_], [2 x %struct.Vec_Wrd_t_], [2 x i32], [2 x i32], i32, i32, [8 x [4 x i64]], [8 x ptr], [8 x ptr], %struct.Vec_Int_t_, %struct.Vec_Int_t_, %struct.Vec_Int_t_, %struct.Vec_Int_t_, %struct.Vec_Int_t_, %struct.Vec_Int_t_, %struct.Vec_Int_t_, [4 x i64], i32, i64, i64, i64, i64, i64, i64, i64, i64, i64, i64, i64, i32, i32, i32, i32, i32, i32, i32, i32, i32, i32, i32, i32, i32, i32, i32, i32, i32, i32, i32, i32, i32, i64, i64, [9 x i32], [9 x i32] }
%struct.Vec_Wrd_t_ = type { i32, i32, ptr }
%struct.Vec_Ptr_t_ = type { i32, i32, ptr }
%struct.Vec_Wec_t_ = type { i32, i32, ptr }
%struct.Vec_Int_t_ = type { i32, i32, ptr }

; Function Attrs: inlinehint nounwind uwtable
define internal i32 @Vec_IntEntryLast(ptr noundef %0) #5 {
  %2 = alloca ptr, align 8
  store ptr %0, ptr %2, align 8, !tbaa !98
  %3 = load ptr, ptr %2, align 8, !tbaa !98
  %4 = getelementptr inbounds nuw %struct.Vec_Int_t_, ptr %3, i32 0, i32 2
  %5 = load ptr, ptr %4, align 8, !tbaa !99
  %6 = load ptr, ptr %2, align 8, !tbaa !98
  %7 = getelementptr inbounds nuw %struct.Vec_Int_t_, ptr %6, i32 0, i32 1
  %8 = load i32, ptr %7, align 4, !tbaa !100
  %9 = sub nsw i32 %8, 1
  %10 = sext i32 %9 to i64
  %11 = getelementptr inbounds i32, ptr %5, i64 %10
  %12 = load i32, ptr %11, align 4, !tbaa !79
  ret i32 %12
}

; Function Attrs: inlinehint nounwind uwtable
define internal i32 @Vec_IntSize(ptr noundef %0) #5 {
  %2 = alloca ptr, align 8
  store ptr %0, ptr %2, align 8, !tbaa !98
  %3 = load ptr, ptr %2, align 8, !tbaa !98
  %4 = getelementptr inbounds nuw %struct.Vec_Int_t_, ptr %3, i32 0, i32 1
  %5 = load i32, ptr %4, align 4, !tbaa !100
  ret i32 %5
}

; Function Attrs: nounwind uwtable
define void @Abc_NtkCountStats(ptr noundef %0, i32 noundef %1) #0 {
  %3 = alloca ptr, align 8
  %4 = alloca i32, align 4
  %5 = alloca i32, align 4
  %6 = alloca i32, align 4
  %7 = alloca i32, align 4
  store ptr %0, ptr %3, align 8, !tbaa !33
  store i32 %1, ptr %4, align 4, !tbaa !79
  call void @llvm.lifetime.start.p0(i64 4, ptr %5) #12
  call void @llvm.lifetime.start.p0(i64 4, ptr %6) #12
  %8 = load ptr, ptr %3, align 8, !tbaa !33
  %9 = getelementptr inbounds nuw %struct.Sfm_Dec_t_, ptr %8, i32 0, i32 27
  %10 = call i32 @Vec_IntSize(ptr noundef %9)
  store i32 %10, ptr %6, align 4, !tbaa !79
  %11 = load i32, ptr %6, align 4, !tbaa !79
  %12 = load i32, ptr %4, align 4, !tbaa !79
  %13 = icmp eq i32 %11, %12
  br i1 %13, label %14, label %15

14:                                               ; preds = %2
  store i32 1, ptr %7, align 4
  br label %82

15:                                               ; preds = %2
  %16 = load ptr, ptr %3, align 8, !tbaa !33
  %17 = getelementptr inbounds nuw %struct.Sfm_Dec_t_, ptr %16, i32 0, i32 27
  %18 = call i32 @Vec_IntEntryLast(ptr noundef %17)
  store i32 %18, ptr %5, align 4, !tbaa !79
  %19 = load i32, ptr %6, align 4, !tbaa !79
  %20 = load i32, ptr %4, align 4, !tbaa !79
  %21 = add nsw i32 %20, 1
  %22 = icmp sgt i32 %19, %21
  br i1 %22, label %23, label %28

23:                                               ; preds = %15
  %24 = load ptr, ptr %3, align 8, !tbaa !33
  %25 = getelementptr inbounds nuw %struct.Sfm_Dec_t_, ptr %24, i32 0, i32 79
  %26 = load i32, ptr %25, align 4, !tbaa !298
  %27 = add nsw i32 %26, 1
  store i32 %27, ptr %25, align 4, !tbaa !298
  br label %81

28:                                               ; preds = %15
  %29 = load i32, ptr %5, align 4, !tbaa !79
  %30 = load ptr, ptr %3, align 8, !tbaa !33
  %31 = getelementptr inbounds nuw %struct.Sfm_Dec_t_, ptr %30, i32 0, i32 9
  %32 = load i32, ptr %31, align 8, !tbaa !75
  %33 = icmp eq i32 %29, %32
  br i1 %33, label %34, label %39

34:                                               ; preds = %28
  %35 = load ptr, ptr %3, align 8, !tbaa !33
  %36 = getelementptr inbounds nuw %struct.Sfm_Dec_t_, ptr %35, i32 0, i32 74
  %37 = load i32, ptr %36, align 8, !tbaa !294
  %38 = add nsw i32 %37, 1
  store i32 %38, ptr %36, align 8, !tbaa !294
  br label %80

39:                                               ; preds = %28
  %40 = load i32, ptr %5, align 4, !tbaa !79
  %41 = load ptr, ptr %3, align 8, !tbaa !33
  %42 = getelementptr inbounds nuw %struct.Sfm_Dec_t_, ptr %41, i32 0, i32 10
  %43 = load i32, ptr %42, align 4, !tbaa !76
  %44 = icmp eq i32 %40, %43
  br i1 %44, label %45, label %50

45:                                               ; preds = %39
  %46 = load ptr, ptr %3, align 8, !tbaa !33
  %47 = getelementptr inbounds nuw %struct.Sfm_Dec_t_, ptr %46, i32 0, i32 75
  %48 = load i32, ptr %47, align 4, !tbaa !295
  %49 = add nsw i32 %48, 1
  store i32 %49, ptr %47, align 4, !tbaa !295
  br label %79

50:                                               ; preds = %39
  %51 = load i32, ptr %5, align 4, !tbaa !79
  %52 = load ptr, ptr %3, align 8, !tbaa !33
  %53 = getelementptr inbounds nuw %struct.Sfm_Dec_t_, ptr %52, i32 0, i32 11
  %54 = load i32, ptr %53, align 8, !tbaa !77
  %55 = icmp eq i32 %51, %54
  br i1 %55, label %56, label %61

56:                                               ; preds = %50
  %57 = load ptr, ptr %3, align 8, !tbaa !33
  %58 = getelementptr inbounds nuw %struct.Sfm_Dec_t_, ptr %57, i32 0, i32 76
  %59 = load i32, ptr %58, align 8, !tbaa !296
  %60 = add nsw i32 %59, 1
  store i32 %60, ptr %58, align 8, !tbaa !296
  br label %78

61:                                               ; preds = %50
  %62 = load i32, ptr %5, align 4, !tbaa !79
  %63 = load ptr, ptr %3, align 8, !tbaa !33
  %64 = getelementptr inbounds nuw %struct.Sfm_Dec_t_, ptr %63, i32 0, i32 12
  %65 = load i32, ptr %64, align 4, !tbaa !78
  %66 = icmp eq i32 %62, %65
  br i1 %66, label %67, label %72

67:                                               ; preds = %61
  %68 = load ptr, ptr %3, align 8, !tbaa !33
  %69 = getelementptr inbounds nuw %struct.Sfm_Dec_t_, ptr %68, i32 0, i32 77
  %70 = load i32, ptr %69, align 4, !tbaa !297
  %71 = add nsw i32 %70, 1
  store i32 %71, ptr %69, align 4, !tbaa !297
  br label %77

72:                                               ; preds = %61
  %73 = load ptr, ptr %3, align 8, !tbaa !33
  %74 = getelementptr inbounds nuw %struct.Sfm_Dec_t_, ptr %73, i32 0, i32 79
  %75 = load i32, ptr %74, align 4, !tbaa !298
  %76 = add nsw i32 %75, 1
  store i32 %76, ptr %74, align 4, !tbaa !298
  br label %77

77:                                               ; preds = %72, %67
  br label %78

78:                                               ; preds = %77, %56
  br label %79

79:                                               ; preds = %78, %45
  br label %80

80:                                               ; preds = %79, %34
  br label %81

81:                                               ; preds = %80, %23
  store i32 0, ptr %7, align 4
  br label %82

82:                                               ; preds = %81, %14
  call void @llvm.lifetime.end.p0(i64 4, ptr %6) #12
  call void @llvm.lifetime.end.p0(i64 4, ptr %5) #12
  %83 = load i32, ptr %7, align 4
  switch i32 %83, label %85 [
    i32 0, label %84
    i32 1, label %84
  ]

84:                                               ; preds = %82, %82
  ret void

85:                                               ; preds = %82
  unreachable
}