; Function Attrs: mustprogress nofree norecurse nosync nounwind willreturn memory(read, argmem: readwrite, inaccessiblemem: none) uwtable
define void @Abc_NtkCountStats(ptr noundef captures(none) %0, i32 noundef %1) local_unnamed_addr #14 {
  %3 = getelementptr i8, ptr %0, i64 228
  %.val = load i32, ptr %3, align 4, !tbaa !85
  %4 = icmp eq i32 %.val, %1
  br i1 %4, label %53, label %5

5:                                                ; preds = %2
  %6 = getelementptr i8, ptr %0, i64 232
  %.val22 = load ptr, ptr %6, align 8, !tbaa !84
  %7 = sext i32 %.val to i64
  %8 = getelementptr i32, ptr %.val22, i64 %7
  %9 = getelementptr i8, ptr %8, i64 -4
  %10 = load i32, ptr %9, align 4, !tbaa !96
  %11 = add nsw i32 %1, 1
  %12 = icmp sgt i32 %.val, %11
  br i1 %12, label %13, label %17

13:                                               ; preds = %5
  %14 = getelementptr inbounds nuw i8, ptr %0, i64 1164
  %15 = load i32, ptr %14, align 4, !tbaa !281
  %16 = add nsw i32 %15, 1
  store i32 %16, ptr %14, align 4, !tbaa !281
  br label %53

17:                                               ; preds = %5
  %18 = getelementptr inbounds nuw i8, ptr %0, i64 104
  %19 = load i32, ptr %18, align 8, !tbaa !66
  %20 = icmp eq i32 %10, %19
  br i1 %20, label %21, label %25

21:                                               ; preds = %17
  %22 = getelementptr inbounds nuw i8, ptr %0, i64 1144
  %23 = load i32, ptr %22, align 8, !tbaa !277
  %24 = add nsw i32 %23, 1
  store i32 %24, ptr %22, align 8, !tbaa !277
  br label %53

25:                                               ; preds = %17
  %26 = getelementptr inbounds nuw i8, ptr %0, i64 108
  %27 = load i32, ptr %26, align 4, !tbaa !67
  %28 = icmp eq i32 %10, %27
  br i1 %28, label %29, label %33

29:                                               ; preds = %25
  %30 = getelementptr inbounds nuw i8, ptr %0, i64 1148
  %31 = load i32, ptr %30, align 4, !tbaa !278
  %32 = add nsw i32 %31, 1
  store i32 %32, ptr %30, align 4, !tbaa !278
  br label %53

33:                                               ; preds = %25
  %34 = getelementptr inbounds nuw i8, ptr %0, i64 112
  %35 = load i32, ptr %34, align 8, !tbaa !68
  %36 = icmp eq i32 %10, %35
  br i1 %36, label %37, label %41

37:                                               ; preds = %33
  %38 = getelementptr inbounds nuw i8, ptr %0, i64 1152
  %39 = load i32, ptr %38, align 8, !tbaa !279
  %40 = add nsw i32 %39, 1
  store i32 %40, ptr %38, align 8, !tbaa !279
  br label %53

41:                                               ; preds = %33
  %42 = getelementptr inbounds nuw i8, ptr %0, i64 116
  %43 = load i32, ptr %42, align 4, !tbaa !69
  %44 = icmp eq i32 %10, %43
  br i1 %44, label %45, label %49

45:                                               ; preds = %41
  %46 = getelementptr inbounds nuw i8, ptr %0, i64 1156
  %47 = load i32, ptr %46, align 4, !tbaa !280
  %48 = add nsw i32 %47, 1
  store i32 %48, ptr %46, align 4, !tbaa !280
  br label %53

49:                                               ; preds = %41
  %50 = getelementptr inbounds nuw i8, ptr %0, i64 1164
  %51 = load i32, ptr %50, align 4, !tbaa !281
  %52 = add nsw i32 %51, 1
  store i32 %52, ptr %50, align 4, !tbaa !281
  br label %53

53:                                               ; preds = %13, %29, %45, %49, %37, %21, %2
  ret void
}